; Function Attrs: nounwind uwtable
define internal ptr @xx_new(ptr readnone captures(none) %0, ptr noundef %1) #0 {
  %3 = tail call i32 (ptr, ptr, ...) @PyArg_ParseTuple(ptr noundef %1, ptr noundef nonnull @.str.9) #4
  %.not = icmp eq i32 %3, 0
  br i1 %.not, label %newXxoObject.exit, label %4

4:                                                ; preds = %2
  %5 = load ptr, ptr @Xxo_Type, align 8, !tbaa !8
  %6 = tail call ptr @_PyObject_GC_New(ptr noundef %5) #4
  %7 = icmp eq ptr %6, null
  br i1 %7, label %newXxoObject.exit, label %8

8:                                                ; preds = %4
  %9 = getelementptr inbounds nuw i8, ptr %6, i64 16
  store ptr null, ptr %9, align 8, !tbaa !11
  br label %newXxoObject.exit

newXxoObject.exit:                                ; preds = %8, %4, %2
  %.0 = phi ptr [ null, %2 ], [ null, %4 ], [ %6, %8 ]
  ret ptr %.0
}